Certificate:
    Data:
        Version: 3 (0x2)
        Serial Number: 1 (0x1)
        Signature Algorithm: sha1WithRSAEncryption
        Issuer: DC=org, DC=simple, O=Simple Inc, OU=Simple Signing CA, CN=Simple Signing CA
        Validity
            Not Before: Nov 23 00:42:10 2019 GMT
            Not After : Nov 22 00:42:10 2021 GMT
        Subject: DC=org, DC=simple, O=Simple Inc, CN=Fred Flintstone
        Subject Public Key Info:
            Public Key Algorithm: rsaEncryption
                RSA Public-Key: (2048 bit)
                Modulus:
                    00:a6:bb:fd:30:4b:11:92:ae:03:53:10:78:db:dc:
                    6e:6f:87:ef:d4:69:b8:79:2a:bd:24:66:21:ed:af:
                    6c:06:3b:63:3e:ee:db:52:ad:76:c8:e7:85:e6:97:
                    e0:ef:59:e2:63:eb:be:96:66:a4:12:3d:db:c3:ba:
                    c3:46:af:1f:0f:ab:cb:d9:4b:d8:28:6b:c5:bf:5d:
                    14:02:fc:2a:e9:69:c3:ed:b5:99:25:a4:63:9d:a4:
                    ea:75:41:2b:2d:50:c4:06:69:dc:7e:65:21:f4:93:
                    f1:ec:ed:ac:41:e8:70:c5:cf:9a:06:8a:98:e5:13:
                    f4:d1:39:41:7a:74:bd:88:3f:9e:90:a2:5f:c2:11:
                    2a:03:14:fe:bb:f9:f5:1c:87:bd:ae:7f:a0:d8:27:
                    25:aa:92:7e:94:98:39:33:51:5d:23:5f:a6:cb:61:
                    dd:6d:08:a5:df:00:cd:c1:63:e5:12:bf:97:be:0e:
                    4c:3d:39:53:50:a5:a2:4b:d6:43:50:3a:21:06:88:
                    0f:4f:38:7e:dd:37:a5:6d:3e:d6:e4:38:4c:70:f8:
                    ab:89:67:f6:41:d9:08:32:ab:c8:f6:9b:17:be:7b:
                    07:01:94:b5:57:7b:fd:5b:fc:d8:31:14:0f:e1:14:
                    56:2c:35:88:b1:2e:4e:f0:51:83:20:2e:cd:df:a5:
                    f7:c9
                Exponent: 65537 (0x10001)
        X509v3 extensions:
            X509v3 Key Usage: critical
                Digital Signature, Key Encipherment
            X509v3 Basic Constraints: 
                CA:FALSE
            X509v3 Extended Key Usage: 
                E-mail Protection, TLS Web Client Authentication
            X509v3 Subject Key Identifier: 
                40:54:7C:15:69:1F:D0:3C:1E:D8:3D:2F:0D:C9:FC:E3:F7:15:98:E0
            X509v3 Authority Key Identifier: 
                keyid:41:C8:9E:7B:0D:13:D9:D2:A1:71:DB:C4:AB:41:4F:68:10:77:42:1A

            X509v3 Subject Alternative Name: 
                email:fred@simple.org
    Signature Algorithm: sha1WithRSAEncryption
         2f:1c:6c:57:98:e5:d2:08:3f:84:5f:8d:e8:bd:5a:48:ee:84:
         a9:4b:ed:7c:56:05:cf:27:65:ba:d2:50:57:3d:0e:6d:a9:85:
         ab:93:10:82:1d:48:9e:db:04:5b:2f:55:63:ae:6e:55:5c:8b:
         89:7d:ac:67:c4:f2:a1:0c:5a:ad:a0:f7:e5:ba:81:19:8e:fd:
         4b:08:22:ac:91:33:bf:b2:18:5d:65:79:c2:4b:b6:f7:ef:cb:
         75:cd:ab:31:bd:aa:5e:e3:07:a4:69:08:50:f2:70:c1:08:38:
         61:f3:06:8d:f1:8a:56:c0:65:ca:ca:19:6a:f8:0a:44:f9:28:
         3b:13:4f:a1:89:e3:ba:d4:20:ca:f3:1d:24:f4:27:06:ff:51:
         88:6c:f8:da:42:67:4e:47:fa:68:aa:60:23:bf:a4:f6:bb:bd:
         d3:61:8f:80:c9:19:09:2c:09:52:21:43:89:e8:e7:16:fd:d2:
         43:6d:5e:40:fe:39:68:ed:ee:eb:82:17:ec:e3:71:bd:14:c2:
         c3:42:aa:11:d6:10:bb:97:05:f2:e3:d8:db:71:64:39:7f:95:
         3c:67:1f:01:90:72:58:aa:7e:ee:6f:40:08:95:98:25:d6:bf:
         6d:2a:b6:61:39:be:04:34:84:a7:a7:9d:22:fb:ee:54:9e:07:
         fd:f1:ae:aa
-----BEGIN CERTIFICATE-----
MIID6zCCAtOgAwIBAgIBATANBgkqhkiG9w0BAQUFADB6MRMwEQYKCZImiZPyLGQB
GRYDb3JnMRYwFAYKCZImiZPyLGQBGRYGc2ltcGxlMRMwEQYDVQQKDApTaW1wbGUg
SW5jMRowGAYDVQQLDBFTaW1wbGUgU2lnbmluZyBDQTEaMBgGA1UEAwwRU2ltcGxl
IFNpZ25pbmcgQ0EwHhcNMTkxMTIzMDA0MjEwWhcNMjExMTIyMDA0MjEwWjBcMRMw
EQYKCZImiZPyLGQBGRYDb3JnMRYwFAYKCZImiZPyLGQBGRYGc2ltcGxlMRMwEQYD
VQQKDApTaW1wbGUgSW5jMRgwFgYDVQQDDA9GcmVkIEZsaW50c3RvbmUwggEiMA0G
CSqGSIb3DQEBAQUAA4IBDwAwggEKAoIBAQCmu/0wSxGSrgNTEHjb3G5vh+/Uabh5
Kr0kZiHtr2wGO2M+7ttSrXbI54Xml+DvWeJj676WZqQSPdvDusNGrx8Pq8vZS9go
a8W/XRQC/CrpacPttZklpGOdpOp1QSstUMQGadx+ZSH0k/Hs7axB6HDFz5oGipjl
E/TROUF6dL2IP56Qol/CESoDFP67+fUch72uf6DYJyWqkn6UmDkzUV0jX6bLYd1t
CKXfAM3BY+USv5e+Dkw9OVNQpaJL1kNQOiEGiA9POH7dN6VtPtbkOExw+KuJZ/ZB
2Qgyq8j2mxe+ewcBlLVXe/1b/NgxFA/hFFYsNYixLk7wUYMgLs3fpffJAgMBAAGj
gZkwgZYwDgYDVR0PAQH/BAQDAgWgMAkGA1UdEwQCMAAwHQYDVR0lBBYwFAYIKwYB
BQUHAwQGCCsGAQUFBwMCMB0GA1UdDgQWBBRAVHwVaR/QPB7YPS8Nyfzj9xWY4DAf
BgNVHSMEGDAWgBRByJ57DRPZ0qFx28SrQU9oEHdCGjAaBgNVHREEEzARgQ9mcmVk
QHNpbXBsZS5vcmcwDQYJKoZIhvcNAQEFBQADggEBAC8cbFeY5dIIP4Rfjei9Wkju
hKlL7XxWBc8nZbrSUFc9Dm2phauTEIIdSJ7bBFsvVWOublVci4l9rGfE8qEMWq2g
9+W6gRmO/UsIIqyRM7+yGF1lecJLtvfvy3XNqzG9ql7jB6RpCFDycMEIOGHzBo3x
ilbAZcrKGWr4CkT5KDsTT6GJ47rUIMrzHST0Jwb/UYhs+NpCZ05H+miqYCO/pPa7
vdNhj4DJGQksCVIhQ4no5xb90kNtXkD+OWjt7uuCF+zjcb0UwsNCqhHWELuXBfLj
2NtxZDl/lTxnHwGQcliqfu5vQAiVmCXWv20qtmE5vgQ0hKennSL77lSeB/3xrqo=
-----END CERTIFICATE-----
