Certificate:
    Data:
        Version: 3 (0x2)
        Serial Number: 2 (0x2)
        Signature Algorithm: sha1WithRSAEncryption
        Issuer: DC=org, DC=simple, O=Simple Inc, OU=Simple Root CA, CN=Simple Root CA
        Validity
            Not Before: Nov 23 00:38:44 2019 GMT
            Not After : Nov 22 00:38:44 2029 GMT
        Subject: DC=org, DC=simple, O=Simple Inc, OU=Simple Signing CA, CN=Simple Signing CA
        Subject Public Key Info:
            Public Key Algorithm: rsaEncryption
                RSA Public-Key: (2048 bit)
                Modulus:
                    00:d9:08:42:e8:a9:3d:f3:5c:49:2c:eb:58:f6:2e:
                    a2:73:b1:f6:97:a6:f4:c5:46:2c:ab:5a:68:d4:54:
                    fe:cb:59:4b:7d:5a:c8:8a:ab:7f:0d:9e:10:04:81:
                    de:fd:64:1a:9c:e4:c1:ae:c5:35:f7:f8:9f:a5:69:
                    b1:86:be:c9:7f:5c:ab:c7:e3:23:45:d8:08:19:d5:
                    1a:43:b6:7d:82:5c:b1:fc:be:74:69:f7:31:5d:e4:
                    5c:05:15:82:be:7f:b6:73:9f:2c:b5:a0:d2:10:9a:
                    02:1f:76:7a:d5:4d:7f:00:b4:eb:9b:3e:90:e0:89:
                    90:61:19:73:47:23:c9:1d:f4:f7:e3:33:6a:76:b7:
                    cb:8f:a3:58:e8:5c:92:e4:92:92:fc:d6:eb:8e:80:
                    e9:a5:32:02:f9:fb:aa:2f:c9:2e:53:1b:0e:35:6f:
                    47:4b:40:a6:97:f4:c3:c7:7f:56:a3:07:e3:5f:44:
                    df:5d:09:ac:2f:10:62:3d:e7:20:77:27:b5:bd:d3:
                    75:bd:52:60:98:72:fb:41:25:f6:e4:77:77:6f:ef:
                    74:aa:17:76:1b:84:0b:1b:f6:0d:86:c4:0b:f9:e7:
                    38:e9:e0:db:2c:ed:b9:1e:34:51:ba:9b:ed:17:1d:
                    bd:e0:2c:5b:3a:71:53:ed:9a:37:f8:55:89:17:fa:
                    9d:8d
                Exponent: 65537 (0x10001)
        X509v3 extensions:
            X509v3 Key Usage: critical
                Certificate Sign, CRL Sign
            X509v3 Basic Constraints: critical
                CA:TRUE, pathlen:0
            X509v3 Subject Key Identifier: 
                41:C8:9E:7B:0D:13:D9:D2:A1:71:DB:C4:AB:41:4F:68:10:77:42:1A
            X509v3 Authority Key Identifier: 
                keyid:DD:D6:B9:40:1C:A9:13:64:01:70:B7:F1:FB:C0:89:2E:43:DE:DD:B4

    Signature Algorithm: sha1WithRSAEncryption
         81:cb:2e:5f:6d:38:8a:f1:23:2f:60:11:f4:72:ad:4f:d0:03:
         b3:5a:5e:d2:9c:bb:d7:3f:2d:7a:3d:ad:2f:1b:a6:22:7f:46:
         6b:07:d7:5a:54:bf:73:c3:fd:2e:c0:80:c4:bc:4b:1a:be:f5:
         16:23:1c:37:59:22:e6:db:aa:6e:d6:93:d5:15:00:9c:40:4a:
         b1:1d:f1:e2:47:6a:e1:12:40:49:f0:c5:47:aa:73:4c:80:33:
         bd:a5:5a:51:3f:45:c1:f8:84:44:98:24:84:e7:0c:8a:98:61:
         88:0a:c4:df:5d:12:4b:97:6a:71:15:9b:79:a1:31:b9:ad:e0:
         0e:6a:d7:b5:d8:31:84:d1:aa:a3:77:45:00:1f:ac:6e:3c:ae:
         29:55:70:0a:65:da:60:6a:5f:89:50:bb:28:6b:54:e4:12:56:
         18:a0:3e:99:49:71:5d:bc:51:7c:39:29:64:6d:db:a1:59:75:
         2b:3c:8f:8f:ab:e8:d6:5a:a0:c1:60:86:7a:0b:8c:09:1f:55:
         e7:74:30:77:e6:6b:13:ef:5a:ce:90:22:f7:ba:a1:d9:1d:a8:
         c2:67:66:f4:90:e6:76:68:db:e1:6a:1d:38:42:14:c6:d1:4d:
         df:0d:d5:a7:1d:70:d8:db:ae:c4:84:ef:e9:77:50:dc:91:cc:
         61:5f:af:fa
-----BEGIN CERTIFICATE-----
MIIDzzCCAregAwIBAgIBAjANBgkqhkiG9w0BAQUFADB0MRMwEQYKCZImiZPyLGQB
GRYDb3JnMRYwFAYKCZImiZPyLGQBGRYGc2ltcGxlMRMwEQYDVQQKDApTaW1wbGUg
SW5jMRcwFQYDVQQLDA5TaW1wbGUgUm9vdCBDQTEXMBUGA1UEAwwOU2ltcGxlIFJv
b3QgQ0EwHhcNMTkxMTIzMDAzODQ0WhcNMjkxMTIyMDAzODQ0WjB6MRMwEQYKCZIm
iZPyLGQBGRYDb3JnMRYwFAYKCZImiZPyLGQBGRYGc2ltcGxlMRMwEQYDVQQKDApT
aW1wbGUgSW5jMRowGAYDVQQLDBFTaW1wbGUgU2lnbmluZyBDQTEaMBgGA1UEAwwR
U2ltcGxlIFNpZ25pbmcgQ0EwggEiMA0GCSqGSIb3DQEBAQUAA4IBDwAwggEKAoIB
AQDZCELoqT3zXEks61j2LqJzsfaXpvTFRiyrWmjUVP7LWUt9WsiKq38NnhAEgd79
ZBqc5MGuxTX3+J+labGGvsl/XKvH4yNF2AgZ1RpDtn2CXLH8vnRp9zFd5FwFFYK+
f7Zznyy1oNIQmgIfdnrVTX8AtOubPpDgiZBhGXNHI8kd9PfjM2p2t8uPo1joXJLk
kpL81uuOgOmlMgL5+6ovyS5TGw41b0dLQKaX9MPHf1ajB+NfRN9dCawvEGI95yB3
J7W903W9UmCYcvtBJfbkd3dv73SqF3YbhAsb9g2GxAv55zjp4Nss7bkeNFG6m+0X
Hb3gLFs6cVPtmjf4VYkX+p2NAgMBAAGjZjBkMA4GA1UdDwEB/wQEAwIBBjASBgNV
HRMBAf8ECDAGAQH/AgEAMB0GA1UdDgQWBBRByJ57DRPZ0qFx28SrQU9oEHdCGjAf
BgNVHSMEGDAWgBTd1rlAHKkTZAFwt/H7wIkuQ97dtDANBgkqhkiG9w0BAQUFAAOC
AQEAgcsuX204ivEjL2AR9HKtT9ADs1pe0py71z8tej2tLxumIn9GawfXWlS/c8P9
LsCAxLxLGr71FiMcN1ki5tuqbtaT1RUAnEBKsR3x4kdq4RJASfDFR6pzTIAzvaVa
UT9FwfiERJgkhOcMiphhiArE310SS5dqcRWbeaExua3gDmrXtdgxhNGqo3dFAB+s
bjyuKVVwCmXaYGpfiVC7KGtU5BJWGKA+mUlxXbxRfDkpZG3boVl1KzyPj6vo1lqg
wWCGeguMCR9V53Qwd+ZrE+9azpAi97qh2R2owmdm9JDmdmjb4WodOEIUxtFN3w3V
px1w2NuuxITv6XdQ3JHMYV+v+g==
-----END CERTIFICATE-----
Certificate:
    Data:
        Version: 3 (0x2)
        Serial Number: 1 (0x1)
        Signature Algorithm: sha1WithRSAEncryption
        Issuer: DC=org, DC=simple, O=Simple Inc, OU=Simple Root CA, CN=Simple Root CA
        Validity
            Not Before: Nov 23 00:36:31 2019 GMT
            Not After : Nov 22 00:36:31 2029 GMT
        Subject: DC=org, DC=simple, O=Simple Inc, OU=Simple Root CA, CN=Simple Root CA
        Subject Public Key Info:
            Public Key Algorithm: rsaEncryption
                RSA Public-Key: (2048 bit)
                Modulus:
                    00:bf:fe:08:8d:d7:62:2f:34:c8:87:eb:e8:b8:c9:
                    61:5c:83:3a:7c:26:ac:0d:37:56:4a:32:76:c4:8a:
                    65:97:17:15:37:a3:5a:ec:b7:3f:ea:f3:08:8e:72:
                    96:59:93:67:a1:11:c2:07:ea:39:f5:5a:ee:ef:fb:
                    e1:1b:4e:13:b9:76:cc:d6:82:e7:fe:9a:93:a3:8c:
                    9a:1e:0d:cf:4a:0a:3e:d3:a1:6b:80:80:89:af:60:
                    b4:cb:ba:28:9a:1b:c7:4a:b1:bc:84:7b:d4:56:ff:
                    6b:6f:68:da:48:27:19:c4:de:d9:94:06:bb:26:6a:
                    79:d1:76:4c:ef:70:6d:31:d1:aa:09:ed:70:74:7d:
                    aa:65:56:f0:d9:4b:73:f1:cb:fa:64:74:04:a9:8f:
                    81:f4:d7:c8:e9:74:4c:d0:7f:40:e4:3d:1a:3b:62:
                    06:86:cf:61:ab:3a:b2:9e:d1:c9:f6:4a:2f:ca:12:
                    30:95:8d:b1:eb:b4:2c:7c:bb:44:06:95:f4:90:06:
                    20:ac:84:0c:e8:09:f5:48:78:8a:65:a9:b6:bc:f4:
                    ac:05:e6:d3:2e:81:3a:a4:6d:4c:34:0a:22:ed:2a:
                    57:47:86:5f:5e:17:e3:d8:98:71:82:fc:dd:a4:dc:
                    97:ff:b6:f6:50:44:8f:21:85:ad:3e:43:f3:b3:bd:
                    a8:6d
                Exponent: 65537 (0x10001)
        X509v3 extensions:
            X509v3 Key Usage: critical
                Certificate Sign, CRL Sign
            X509v3 Basic Constraints: critical
                CA:TRUE
            X509v3 Subject Key Identifier: 
                DD:D6:B9:40:1C:A9:13:64:01:70:B7:F1:FB:C0:89:2E:43:DE:DD:B4
            X509v3 Authority Key Identifier: 
                keyid:DD:D6:B9:40:1C:A9:13:64:01:70:B7:F1:FB:C0:89:2E:43:DE:DD:B4

    Signature Algorithm: sha1WithRSAEncryption
         02:37:4c:2d:cd:8f:09:f3:c9:5c:d3:71:73:8d:bd:6c:f5:8c:
         ad:2f:cf:76:be:2c:32:41:51:8e:8c:88:84:db:9b:53:ff:67:
         bb:e9:8c:63:e4:7e:d7:d3:3d:f4:59:c7:1d:be:66:29:48:56:
         47:d9:69:03:2d:96:ba:d2:0c:e7:25:4d:ae:2a:67:c7:31:94:
         f6:21:3c:b3:26:a9:95:85:a4:a3:3a:6d:88:76:9c:ea:54:b2:
         46:a8:e8:6d:b6:4c:b6:8b:a7:84:cf:24:50:e6:b2:f7:74:19:
         8a:2e:ab:e4:ba:de:97:d1:42:7e:6b:84:ea:d7:c8:db:db:f6:
         21:56:f7:a2:7f:da:3e:31:5f:2f:2a:a8:1f:76:89:04:52:e2:
         71:6b:41:a3:4c:67:be:8c:1a:70:96:a5:46:da:28:88:52:8b:
         8a:2d:7b:7d:d4:9a:70:11:f0:1f:d6:e5:91:73:6b:ee:83:44:
         85:61:94:0d:0b:76:c1:3d:08:de:c3:a5:76:83:4a:9a:93:0a:
         6d:e4:4e:b5:d7:02:23:62:17:80:44:78:5d:8a:72:6d:e6:db:
         1d:f2:f3:c7:63:4e:7f:81:6d:31:35:80:75:7b:33:1e:36:f6:
         49:6f:7a:ac:75:59:fd:87:32:40:05:e2:24:6e:63:a7:4c:85:
         6d:dc:6b:18
-----BEGIN CERTIFICATE-----
MIIDxjCCAq6gAwIBAgIBATANBgkqhkiG9w0BAQUFADB0MRMwEQYKCZImiZPyLGQB
GRYDb3JnMRYwFAYKCZImiZPyLGQBGRYGc2ltcGxlMRMwEQYDVQQKDApTaW1wbGUg
SW5jMRcwFQYDVQQLDA5TaW1wbGUgUm9vdCBDQTEXMBUGA1UEAwwOU2ltcGxlIFJv
b3QgQ0EwHhcNMTkxMTIzMDAzNjMxWhcNMjkxMTIyMDAzNjMxWjB0MRMwEQYKCZIm
iZPyLGQBGRYDb3JnMRYwFAYKCZImiZPyLGQBGRYGc2ltcGxlMRMwEQYDVQQKDApT
aW1wbGUgSW5jMRcwFQYDVQQLDA5TaW1wbGUgUm9vdCBDQTEXMBUGA1UEAwwOU2lt
cGxlIFJvb3QgQ0EwggEiMA0GCSqGSIb3DQEBAQUAA4IBDwAwggEKAoIBAQC//giN
12IvNMiH6+i4yWFcgzp8JqwNN1ZKMnbEimWXFxU3o1rstz/q8wiOcpZZk2ehEcIH
6jn1Wu7v++EbThO5dszWguf+mpOjjJoeDc9KCj7ToWuAgImvYLTLuiiaG8dKsbyE
e9RW/2tvaNpIJxnE3tmUBrsmannRdkzvcG0x0aoJ7XB0faplVvDZS3Pxy/pkdASp
j4H018jpdEzQf0DkPRo7YgaGz2GrOrKe0cn2Si/KEjCVjbHrtCx8u0QGlfSQBiCs
hAzoCfVIeIplqba89KwF5tMugTqkbUw0CiLtKldHhl9eF+PYmHGC/N2k3Jf/tvZQ
RI8hha0+Q/OzvahtAgMBAAGjYzBhMA4GA1UdDwEB/wQEAwIBBjAPBgNVHRMBAf8E
BTADAQH/MB0GA1UdDgQWBBTd1rlAHKkTZAFwt/H7wIkuQ97dtDAfBgNVHSMEGDAW
gBTd1rlAHKkTZAFwt/H7wIkuQ97dtDANBgkqhkiG9w0BAQUFAAOCAQEAAjdMLc2P
CfPJXNNxc429bPWMrS/Pdr4sMkFRjoyIhNubU/9nu+mMY+R+19M99FnHHb5mKUhW
R9lpAy2WutIM5yVNripnxzGU9iE8syaplYWkozptiHac6lSyRqjobbZMtounhM8k
UOay93QZii6r5Lrel9FCfmuE6tfI29v2IVb3on/aPjFfLyqoH3aJBFLicWtBo0xn
vowacJalRtooiFKLii17fdSacBHwH9blkXNr7oNEhWGUDQt2wT0I3sOldoNKmpMK
beROtdcCI2IXgER4XYpybebbHfLzx2NOf4FtMTWAdXszHjb2SW96rHVZ/YcyQAXi
JG5jp0yFbdxrGA==
-----END CERTIFICATE-----
