Certificate:
    Data:
        Version: 3 (0x2)
        Serial Number: 2 (0x2)
        Signature Algorithm: sha1WithRSAEncryption
        Issuer: DC=org, DC=simple, O=Simple Inc, OU=Simple Root CA, CN=Simple Root CA
        Validity
            Not Before: Nov 23 00:38:44 2019 GMT
            Not After : Nov 22 00:38:44 2029 GMT
        Subject: DC=org, DC=simple, O=Simple Inc, OU=Simple Signing CA, CN=Simple Signing CA
        Subject Public Key Info:
            Public Key Algorithm: rsaEncryption
                RSA Public-Key: (2048 bit)
                Modulus:
                    00:d9:08:42:e8:a9:3d:f3:5c:49:2c:eb:58:f6:2e:
                    a2:73:b1:f6:97:a6:f4:c5:46:2c:ab:5a:68:d4:54:
                    fe:cb:59:4b:7d:5a:c8:8a:ab:7f:0d:9e:10:04:81:
                    de:fd:64:1a:9c:e4:c1:ae:c5:35:f7:f8:9f:a5:69:
                    b1:86:be:c9:7f:5c:ab:c7:e3:23:45:d8:08:19:d5:
                    1a:43:b6:7d:82:5c:b1:fc:be:74:69:f7:31:5d:e4:
                    5c:05:15:82:be:7f:b6:73:9f:2c:b5:a0:d2:10:9a:
                    02:1f:76:7a:d5:4d:7f:00:b4:eb:9b:3e:90:e0:89:
                    90:61:19:73:47:23:c9:1d:f4:f7:e3:33:6a:76:b7:
                    cb:8f:a3:58:e8:5c:92:e4:92:92:fc:d6:eb:8e:80:
                    e9:a5:32:02:f9:fb:aa:2f:c9:2e:53:1b:0e:35:6f:
                    47:4b:40:a6:97:f4:c3:c7:7f:56:a3:07:e3:5f:44:
                    df:5d:09:ac:2f:10:62:3d:e7:20:77:27:b5:bd:d3:
                    75:bd:52:60:98:72:fb:41:25:f6:e4:77:77:6f:ef:
                    74:aa:17:76:1b:84:0b:1b:f6:0d:86:c4:0b:f9:e7:
                    38:e9:e0:db:2c:ed:b9:1e:34:51:ba:9b:ed:17:1d:
                    bd:e0:2c:5b:3a:71:53:ed:9a:37:f8:55:89:17:fa:
                    9d:8d
                Exponent: 65537 (0x10001)
        X509v3 extensions:
            X509v3 Key Usage: critical
                Certificate Sign, CRL Sign
            X509v3 Basic Constraints: critical
                CA:TRUE, pathlen:0
            X509v3 Subject Key Identifier: 
                41:C8:9E:7B:0D:13:D9:D2:A1:71:DB:C4:AB:41:4F:68:10:77:42:1A
            X509v3 Authority Key Identifier: 
                keyid:DD:D6:B9:40:1C:A9:13:64:01:70:B7:F1:FB:C0:89:2E:43:DE:DD:B4

    Signature Algorithm: sha1WithRSAEncryption
         81:cb:2e:5f:6d:38:8a:f1:23:2f:60:11:f4:72:ad:4f:d0:03:
         b3:5a:5e:d2:9c:bb:d7:3f:2d:7a:3d:ad:2f:1b:a6:22:7f:46:
         6b:07:d7:5a:54:bf:73:c3:fd:2e:c0:80:c4:bc:4b:1a:be:f5:
         16:23:1c:37:59:22:e6:db:aa:6e:d6:93:d5:15:00:9c:40:4a:
         b1:1d:f1:e2:47:6a:e1:12:40:49:f0:c5:47:aa:73:4c:80:33:
         bd:a5:5a:51:3f:45:c1:f8:84:44:98:24:84:e7:0c:8a:98:61:
         88:0a:c4:df:5d:12:4b:97:6a:71:15:9b:79:a1:31:b9:ad:e0:
         0e:6a:d7:b5:d8:31:84:d1:aa:a3:77:45:00:1f:ac:6e:3c:ae:
         29:55:70:0a:65:da:60:6a:5f:89:50:bb:28:6b:54:e4:12:56:
         18:a0:3e:99:49:71:5d:bc:51:7c:39:29:64:6d:db:a1:59:75:
         2b:3c:8f:8f:ab:e8:d6:5a:a0:c1:60:86:7a:0b:8c:09:1f:55:
         e7:74:30:77:e6:6b:13:ef:5a:ce:90:22:f7:ba:a1:d9:1d:a8:
         c2:67:66:f4:90:e6:76:68:db:e1:6a:1d:38:42:14:c6:d1:4d:
         df:0d:d5:a7:1d:70:d8:db:ae:c4:84:ef:e9:77:50:dc:91:cc:
         61:5f:af:fa
-----BEGIN CERTIFICATE-----
MIIDzzCCAregAwIBAgIBAjANBgkqhkiG9w0BAQUFADB0MRMwEQYKCZImiZPyLGQB
GRYDb3JnMRYwFAYKCZImiZPyLGQBGRYGc2ltcGxlMRMwEQYDVQQKDApTaW1wbGUg
SW5jMRcwFQYDVQQLDA5TaW1wbGUgUm9vdCBDQTEXMBUGA1UEAwwOU2ltcGxlIFJv
b3QgQ0EwHhcNMTkxMTIzMDAzODQ0WhcNMjkxMTIyMDAzODQ0WjB6MRMwEQYKCZIm
iZPyLGQBGRYDb3JnMRYwFAYKCZImiZPyLGQBGRYGc2ltcGxlMRMwEQYDVQQKDApT
aW1wbGUgSW5jMRowGAYDVQQLDBFTaW1wbGUgU2lnbmluZyBDQTEaMBgGA1UEAwwR
U2ltcGxlIFNpZ25pbmcgQ0EwggEiMA0GCSqGSIb3DQEBAQUAA4IBDwAwggEKAoIB
AQDZCELoqT3zXEks61j2LqJzsfaXpvTFRiyrWmjUVP7LWUt9WsiKq38NnhAEgd79
ZBqc5MGuxTX3+J+labGGvsl/XKvH4yNF2AgZ1RpDtn2CXLH8vnRp9zFd5FwFFYK+
f7Zznyy1oNIQmgIfdnrVTX8AtOubPpDgiZBhGXNHI8kd9PfjM2p2t8uPo1joXJLk
kpL81uuOgOmlMgL5+6ovyS5TGw41b0dLQKaX9MPHf1ajB+NfRN9dCawvEGI95yB3
J7W903W9UmCYcvtBJfbkd3dv73SqF3YbhAsb9g2GxAv55zjp4Nss7bkeNFG6m+0X
Hb3gLFs6cVPtmjf4VYkX+p2NAgMBAAGjZjBkMA4GA1UdDwEB/wQEAwIBBjASBgNV
HRMBAf8ECDAGAQH/AgEAMB0GA1UdDgQWBBRByJ57DRPZ0qFx28SrQU9oEHdCGjAf
BgNVHSMEGDAWgBTd1rlAHKkTZAFwt/H7wIkuQ97dtDANBgkqhkiG9w0BAQUFAAOC
AQEAgcsuX204ivEjL2AR9HKtT9ADs1pe0py71z8tej2tLxumIn9GawfXWlS/c8P9
LsCAxLxLGr71FiMcN1ki5tuqbtaT1RUAnEBKsR3x4kdq4RJASfDFR6pzTIAzvaVa
UT9FwfiERJgkhOcMiphhiArE310SS5dqcRWbeaExua3gDmrXtdgxhNGqo3dFAB+s
bjyuKVVwCmXaYGpfiVC7KGtU5BJWGKA+mUlxXbxRfDkpZG3boVl1KzyPj6vo1lqg
wWCGeguMCR9V53Qwd+ZrE+9azpAi97qh2R2owmdm9JDmdmjb4WodOEIUxtFN3w3V
px1w2NuuxITv6XdQ3JHMYV+v+g==
-----END CERTIFICATE-----
